; Function Attrs: mustprogress nounwind uwtable
define internal fastcc void @_ZL12PrintPercentll(i64 noundef %0, i64 noundef %1) unnamed_addr #0 {
  %3 = tail call noundef nonnull align 8 dereferenceable(96) ptr @_ZN4llvm4errsEv() #12
  %4 = getelementptr inbounds nuw i8, ptr %3, i64 24
  %5 = load ptr, ptr %4, align 8
  %6 = getelementptr inbounds nuw i8, ptr %3, i64 32
  %7 = load ptr, ptr %6, align 8
  %8 = icmp eq ptr %5, %7
  br i1 %8, label %9, label %11

9:                                                ; preds = %2
  %10 = tail call noundef nonnull align 8 dereferenceable(48) ptr @_ZN4llvm11raw_ostream5writeEPKcm(ptr noundef nonnull align 8 dereferenceable(48) %3, ptr noundef nonnull @.str.54, i64 noundef 1) #12
  br label %_ZN4llvm11raw_ostreamlsEPKc.exit

11:                                               ; preds = %2
  store i8 40, ptr %7, align 1
  %12 = load ptr, ptr %6, align 8
  %13 = getelementptr inbounds i8, ptr %12, i64 1
  store ptr %13, ptr %6, align 8
  br label %_ZN4llvm11raw_ostreamlsEPKc.exit

_ZN4llvm11raw_ostreamlsEPKc.exit:                 ; preds = %9, %11
  %.0.i.i = phi ptr [ %10, %9 ], [ %3, %11 ]
  %14 = mul nsw i64 %0, 100
  %15 = sdiv i64 %14, %1
  %16 = tail call noundef nonnull align 8 dereferenceable(48) ptr @_ZN4llvm11raw_ostreamlsEx(ptr noundef nonnull align 8 dereferenceable(48) %.0.i.i, i64 noundef %15) #12
  %17 = getelementptr inbounds nuw i8, ptr %16, i64 24
  %18 = load ptr, ptr %17, align 8
  %19 = getelementptr inbounds nuw i8, ptr %16, i64 32
  %20 = load ptr, ptr %19, align 8
  %21 = icmp eq ptr %18, %20
  br i1 %21, label %22, label %24

22:                                               ; preds = %_ZN4llvm11raw_ostreamlsEPKc.exit
  %23 = tail call noundef nonnull align 8 dereferenceable(48) ptr @_ZN4llvm11raw_ostream5writeEPKcm(ptr noundef nonnull align 8 dereferenceable(48) %16, ptr noundef nonnull @.str.55, i64 noundef 1) #12
  br label %_ZN4llvm11raw_ostreamlsEPKc.exit6

24:                                               ; preds = %_ZN4llvm11raw_ostreamlsEPKc.exit
  store i8 46, ptr %20, align 1
  %25 = load ptr, ptr %19, align 8
  %26 = getelementptr inbounds i8, ptr %25, i64 1
  store ptr %26, ptr %19, align 8
  br label %_ZN4llvm11raw_ostreamlsEPKc.exit6

_ZN4llvm11raw_ostreamlsEPKc.exit6:                ; preds = %22, %24
  %.0.i.i5 = phi ptr [ %23, %22 ], [ %16, %24 ]
  %27 = mul nsw i64 %0, 1000
  %28 = sdiv i64 %27, %1
  %29 = srem i64 %28, 10
  %30 = tail call noundef nonnull align 8 dereferenceable(48) ptr @_ZN4llvm11raw_ostreamlsEx(ptr noundef nonnull align 8 dereferenceable(48) %.0.i.i5, i64 noundef %29) #12
  %31 = getelementptr inbounds nuw i8, ptr %30, i64 24
  %32 = load ptr, ptr %31, align 8
  %33 = getelementptr inbounds nuw i8, ptr %30, i64 32
  %34 = load ptr, ptr %33, align 8
  %35 = ptrtoint ptr %32 to i64
  %36 = ptrtoint ptr %34 to i64
  %37 = sub i64 %35, %36
  %38 = icmp ult i64 %37, 3
  br i1 %38, label %39, label %41

39:                                               ; preds = %_ZN4llvm11raw_ostreamlsEPKc.exit6
  %40 = tail call noundef nonnull align 8 dereferenceable(48) ptr @_ZN4llvm11raw_ostream5writeEPKcm(ptr noundef nonnull align 8 dereferenceable(48) %30, ptr noundef nonnull @.str.56, i64 noundef 3) #12
  br label %_ZN4llvm11raw_ostreamlsEPKc.exit9

41:                                               ; preds = %_ZN4llvm11raw_ostreamlsEPKc.exit6
  tail call void @llvm.memcpy.p0.p0.i64(ptr noundef nonnull align 1 dereferenceable(3) %34, ptr noundef nonnull align 1 dereferenceable(3) @.str.56, i64 3, i1 false)
  %42 = load ptr, ptr %33, align 8
  %43 = getelementptr inbounds i8, ptr %42, i64 3
  store ptr %43, ptr %33, align 8
  br label %_ZN4llvm11raw_ostreamlsEPKc.exit9

_ZN4llvm11raw_ostreamlsEPKc.exit9:                ; preds = %39, %41
  ret void
}